target datalayout = "e-m:e-p270:32:32-p271:32:32-p272:64:64-i64:64-i128:128-f80:128-n8:16:32:64-S128"
target triple = "x86_64-pc-linux-gnu"

%struct.archive_read_filter = type { i64, ptr, ptr, ptr, ptr, ptr, ptr, i32, i32, i32, ptr, i64, ptr, i64, ptr, i64, ptr, i64, i8, i8, i8 }
%struct.uudecode = type { i64, ptr, i64, i64, ptr, i32, i32, i32, ptr }

; Function Attrs: nounwind uwtable
define internal i32 @uudecode_filter_close(ptr noundef %0) #0 {
  %2 = alloca ptr, align 8
  %3 = alloca ptr, align 8
  store ptr %0, ptr %2, align 8, !tbaa !13
  call void @llvm.lifetime.start.p0(i64 8, ptr %3) #8
  %4 = load ptr, ptr %2, align 8, !tbaa !13
  %5 = getelementptr inbounds nuw %struct.archive_read_filter, ptr %4, i32 0, i32 5
  %6 = load ptr, ptr %5, align 8, !tbaa !33
  store ptr %6, ptr %3, align 8, !tbaa !29
  %7 = load ptr, ptr %3, align 8, !tbaa !29
  %8 = getelementptr inbounds nuw %struct.uudecode, ptr %7, i32 0, i32 1
  %9 = load ptr, ptr %8, align 8, !tbaa !34
  call void @free(ptr noundef %9) #8
  %10 = load ptr, ptr %3, align 8, !tbaa !29
  %11 = getelementptr inbounds nuw %struct.uudecode, ptr %10, i32 0, i32 4
  %12 = load ptr, ptr %11, align 8, !tbaa !38
  call void @free(ptr noundef %12) #8
  %13 = load ptr, ptr %3, align 8, !tbaa !29
  %14 = getelementptr inbounds nuw %struct.uudecode, ptr %13, i32 0, i32 8
  %15 = load ptr, ptr %14, align 8, !tbaa !41
  call void @free(ptr noundef %15) #8
  %16 = load ptr, ptr %3, align 8, !tbaa !29
  call void @free(ptr noundef %16) #8
  call void @llvm.lifetime.end.p0(i64 8, ptr %3) #8
  ret i32 0
}