; Function Attrs: mustprogress nounwind willreturn uwtable
define internal noundef i32 @uudecode_filter_close(ptr noundef readonly captures(none) %0) #6 {
  %2 = getelementptr inbounds nuw i8, ptr %0, i64 40
  %3 = load ptr, ptr %2, align 8, !tbaa !24
  %4 = getelementptr inbounds nuw i8, ptr %3, i64 8
  %5 = load ptr, ptr %4, align 8, !tbaa !25
  tail call void @free(ptr noundef %5) #10
  %6 = getelementptr inbounds nuw i8, ptr %3, i64 32
  %7 = load ptr, ptr %6, align 8, !tbaa !28
  tail call void @free(ptr noundef %7) #10
  %8 = getelementptr inbounds nuw i8, ptr %3, i64 56
  %9 = load ptr, ptr %8, align 8, !tbaa !39
  tail call void @free(ptr noundef %9) #10
  tail call void @free(ptr noundef %3) #10
  ret i32 0
}